target datalayout = "e-m:e-p270:32:32-p271:32:32-p272:64:64-i64:64-i128:128-f80:128-n8:16:32:64-S128"
target triple = "x86_64-pc-linux-gnu"

; Function Attrs: nounwind uwtable
define void @Pa_Sleep(i64 noundef %0) #0 {
  %2 = alloca i64, align 8
  store i64 %0, ptr %2, align 8, !tbaa !3
  br label %3

3:                                                ; preds = %6, %1
  %4 = load i64, ptr %2, align 8, !tbaa !3
  %5 = icmp sgt i64 %4, 999
  br i1 %5, label %6, label %10

6:                                                ; preds = %3
  %7 = call i32 @usleep(i32 noundef 999000)
  %8 = load i64, ptr %2, align 8, !tbaa !3
  %9 = sub nsw i64 %8, 999
  store i64 %9, ptr %2, align 8, !tbaa !3
  br label %3, !llvm.loop !9

10:                                               ; preds = %3
  %11 = load i64, ptr %2, align 8, !tbaa !3
  %12 = mul nsw i64 %11, 1000
  %13 = trunc i64 %12 to i32
  %14 = call i32 @usleep(i32 noundef %13)
  ret void
}