; Function Attrs: nounwind uwtable
define void @Pa_Sleep(i64 noundef %0) local_unnamed_addr #6 {
  %2 = icmp sgt i64 %0, 999
  br i1 %2, label %.lr.ph, label %._crit_edge

.lr.ph:                                           ; preds = %1, %.lr.ph
  %.03 = phi i64 [ %4, %.lr.ph ], [ %0, %1 ]
  %3 = tail call i32 @usleep(i32 noundef 999000) #16
  %4 = add nsw i64 %.03, -999
  %5 = icmp samesign ugt i64 %.03, 1998
  br i1 %5, label %.lr.ph, label %._crit_edge, !llvm.loop !3

._crit_edge:                                      ; preds = %.lr.ph, %1
  %.0.lcssa = phi i64 [ %0, %1 ], [ %4, %.lr.ph ]
  %6 = trunc i64 %.0.lcssa to i32
  %7 = mul i32 %6, 1000
  %8 = tail call i32 @usleep(i32 noundef %7) #16
  ret void
}